target datalayout = "e-m:e-p270:32:32-p271:32:32-p272:64:64-i64:64-i128:128-f80:128-n8:16:32:64-S128"
target triple = "x86_64-unknown-linux-gnu"

; Function Attrs: mustprogress nounwind uwtable
define noundef i64 @_ZN8facebook5velox4exec13findNextCommaERKNSt7__cxx1112basic_stringIcSt11char_traitsIcESaIcEEEm(ptr noundef nonnull align 8 dereferenceable(32) %str, i64 noundef %start) #4 {
entry:
  %retval = alloca i64, align 8
  %str.addr = alloca ptr, align 8
  %start.addr = alloca i64, align 8
  %cnt = alloca i32, align 4
  %i = alloca i64, align 8
  store ptr %str, ptr %str.addr, align 8
  store i64 %start, ptr %start.addr, align 8
  store i32 0, ptr %cnt, align 4
  %0 = load i64, ptr %start.addr, align 8
  store i64 %0, ptr %i, align 8
  br label %for.cond

for.cond:                                         ; preds = %for.inc, %entry
  %1 = load i64, ptr %i, align 8
  %2 = load ptr, ptr %str.addr, align 8
  %call = call noundef i64 @_ZNKSt7__cxx1112basic_stringIcSt11char_traitsIcESaIcEE4sizeEv(ptr noundef nonnull align 8 dereferenceable(32) %2) #3
  %cmp = icmp ult i64 %1, %call
  br i1 %cmp, label %for.body, label %for.end

for.body:                                         ; preds = %for.cond
  %3 = load ptr, ptr %str.addr, align 8
  %4 = load i64, ptr %i, align 8
  %call1 = call noundef nonnull align 1 dereferenceable(1) ptr @_ZNKSt7__cxx1112basic_stringIcSt11char_traitsIcESaIcEEixEm(ptr noundef nonnull align 8 dereferenceable(32) %3, i64 noundef %4) #3
  %5 = load i8, ptr %call1, align 1
  %conv = sext i8 %5 to i32
  %cmp2 = icmp eq i32 %conv, 40
  br i1 %cmp2, label %if.then, label %if.else

if.then:                                          ; preds = %for.body
  %6 = load i32, ptr %cnt, align 4
  %inc = add nsw i32 %6, 1
  store i32 %inc, ptr %cnt, align 4
  br label %if.end14

if.else:                                          ; preds = %for.body
  %7 = load ptr, ptr %str.addr, align 8
  %8 = load i64, ptr %i, align 8
  %call3 = call noundef nonnull align 1 dereferenceable(1) ptr @_ZNKSt7__cxx1112basic_stringIcSt11char_traitsIcESaIcEEixEm(ptr noundef nonnull align 8 dereferenceable(32) %7, i64 noundef %8) #3
  %9 = load i8, ptr %call3, align 1
  %conv4 = sext i8 %9 to i32
  %cmp5 = icmp eq i32 %conv4, 41
  br i1 %cmp5, label %if.then6, label %if.else7

if.then6:                                         ; preds = %if.else
  %10 = load i32, ptr %cnt, align 4
  %dec = add nsw i32 %10, -1
  store i32 %dec, ptr %cnt, align 4
  br label %if.end13

if.else7:                                         ; preds = %if.else
  %11 = load i32, ptr %cnt, align 4
  %cmp8 = icmp eq i32 %11, 0
  br i1 %cmp8, label %land.lhs.true, label %if.end

land.lhs.true:                                    ; preds = %if.else7
  %12 = load ptr, ptr %str.addr, align 8
  %13 = load i64, ptr %i, align 8
  %call9 = call noundef nonnull align 1 dereferenceable(1) ptr @_ZNKSt7__cxx1112basic_stringIcSt11char_traitsIcESaIcEEixEm(ptr noundef nonnull align 8 dereferenceable(32) %12, i64 noundef %13) #3
  %14 = load i8, ptr %call9, align 1
  %conv10 = sext i8 %14 to i32
  %cmp11 = icmp eq i32 %conv10, 44
  br i1 %cmp11, label %if.then12, label %if.end

if.then12:                                        ; preds = %land.lhs.true
  %15 = load i64, ptr %i, align 8
  store i64 %15, ptr %retval, align 8
  br label %return

if.end:                                           ; preds = %land.lhs.true, %if.else7
  br label %if.end13

if.end13:                                         ; preds = %if.end, %if.then6
  br label %if.end14

if.end14:                                         ; preds = %if.end13, %if.then
  br label %for.inc

for.inc:                                          ; preds = %if.end14
  %16 = load i64, ptr %i, align 8
  %inc15 = add i64 %16, 1
  store i64 %inc15, ptr %i, align 8
  br label %for.cond, !llvm.loop !8

for.end:                                          ; preds = %for.cond
  store i64 -1, ptr %retval, align 8
  br label %return

return:                                           ; preds = %for.end, %if.then12
  %17 = load i64, ptr %retval, align 8
  ret i64 %17
}