; Function Attrs: mustprogress nounwind uwtable
define noundef i64 @_ZN8facebook5velox4exec13findNextCommaERKNSt7__cxx1112basic_stringIcSt11char_traitsIcESaIcEEEm(ptr noundef nonnull align 8 dereferenceable(32) %str, i64 noundef %start) local_unnamed_addr #4 {
entry:
  %call11 = tail call noundef i64 @_ZNKSt7__cxx1112basic_stringIcSt11char_traitsIcESaIcEE4sizeEv(ptr noundef nonnull align 8 dereferenceable(32) %str) #20
  %cmp12 = icmp ugt i64 %call11, %start
  br i1 %cmp12, label %for.body, label %return

for.body:                                         ; preds = %entry, %for.inc
  %i.014 = phi i64 [ %inc15, %for.inc ], [ %start, %entry ]
  %cnt.013 = phi i32 [ %cnt.1, %for.inc ], [ 0, %entry ]
  %call1 = tail call noundef nonnull align 1 dereferenceable(1) ptr @_ZNKSt7__cxx1112basic_stringIcSt11char_traitsIcESaIcEEixEm(ptr noundef nonnull align 8 dereferenceable(32) %str, i64 noundef %i.014) #20
  %0 = load i8, ptr %call1, align 1
  %cmp2 = icmp eq i8 %0, 40
  br i1 %cmp2, label %if.then, label %if.else

if.then:                                          ; preds = %for.body
  %inc = add nsw i32 %cnt.013, 1
  br label %for.inc

if.else:                                          ; preds = %for.body
  %call3 = tail call noundef nonnull align 1 dereferenceable(1) ptr @_ZNKSt7__cxx1112basic_stringIcSt11char_traitsIcESaIcEEixEm(ptr noundef nonnull align 8 dereferenceable(32) %str, i64 noundef %i.014) #20
  %1 = load i8, ptr %call3, align 1
  %cmp5 = icmp eq i8 %1, 41
  br i1 %cmp5, label %if.then6, label %if.else7

if.then6:                                         ; preds = %if.else
  %dec = add nsw i32 %cnt.013, -1
  br label %for.inc

if.else7:                                         ; preds = %if.else
  %cmp8 = icmp eq i32 %cnt.013, 0
  br i1 %cmp8, label %land.lhs.true, label %for.inc

land.lhs.true:                                    ; preds = %if.else7
  %call9 = tail call noundef nonnull align 1 dereferenceable(1) ptr @_ZNKSt7__cxx1112basic_stringIcSt11char_traitsIcESaIcEEixEm(ptr noundef nonnull align 8 dereferenceable(32) %str, i64 noundef %i.014) #20
  %2 = load i8, ptr %call9, align 1
  %cmp11 = icmp eq i8 %2, 44
  br i1 %cmp11, label %return, label %for.inc

for.inc:                                          ; preds = %if.then, %if.else7, %land.lhs.true, %if.then6
  %cnt.1 = phi i32 [ %inc, %if.then ], [ %dec, %if.then6 ], [ 0, %land.lhs.true ], [ %cnt.013, %if.else7 ]
  %inc15 = add nuw i64 %i.014, 1
  %call = tail call noundef i64 @_ZNKSt7__cxx1112basic_stringIcSt11char_traitsIcESaIcEE4sizeEv(ptr noundef nonnull align 8 dereferenceable(32) %str) #20
  %cmp = icmp ult i64 %inc15, %call
  br i1 %cmp, label %for.body, label %return, !llvm.loop !11

return:                                           ; preds = %land.lhs.true, %for.inc, %entry
  %retval.0 = phi i64 [ -1, %entry ], [ -1, %for.inc ], [ %i.014, %land.lhs.true ]
  ret i64 %retval.0
}